; Function Attrs: cold mustprogress uwtable
define dso_local noundef zeroext i1 @_Z38Vmycpu_top___024root___eval_phase__stlP20Vmycpu_top___024root(ptr noundef %0) local_unnamed_addr #6 {
  tail call void @_Z41Vmycpu_top___024root___eval_triggers__stlP20Vmycpu_top___024root(ptr noundef %0) #13
  %2 = getelementptr inbounds i8, ptr %0, i64 19200
  br label %3

3:                                                ; preds = %5, %1
  %4 = phi i1 [ true, %1 ], [ false, %5 ]
  %.0.i = phi i64 [ 0, %1 ], [ 1, %5 ]
  br i1 %4, label %5, label %_ZNK12VlTriggerVecILm2EE3anyEv.exit

5:                                                ; preds = %3
  %6 = getelementptr inbounds [1 x i64], ptr %2, i64 0, i64 %.0.i
  %7 = load i64, ptr %6, align 8
  %.not.i = icmp eq i64 %7, 0
  br i1 %.not.i, label %3, label %8, !llvm.loop !10

8:                                                ; preds = %5
  tail call void @_Z31Vmycpu_top___024root___eval_stlP20Vmycpu_top___024root(ptr noundef nonnull %0) #13
  br label %_ZNK12VlTriggerVecILm2EE3anyEv.exit

_ZNK12VlTriggerVecILm2EE3anyEv.exit:              ; preds = %3, %8
  ret i1 %4
}